target datalayout = "e-m:e-p270:32:32-p271:32:32-p272:64:64-i64:64-i128:128-f80:128-n8:16:32:64-S128"
target triple = "x86_64-unknown-linux-gnu"

%"class.OpenImageIO_v2_6_0::thread_pool" = type { %"class.std::unique_ptr" }
%"class.std::unique_ptr" = type { %"struct.std::__uniq_ptr_data" }
%"struct.std::__uniq_ptr_data" = type { %"class.std::__uniq_ptr_impl" }
%"class.std::__uniq_ptr_impl" = type { %"class.std::tuple" }
%"class.std::tuple" = type { %"struct.std::_Tuple_impl" }
%"struct.std::_Tuple_impl" = type { %"struct.std::_Head_base.1" }
%"struct.std::_Head_base.1" = type { ptr }
%"class.OpenImageIO_v2_6_0::thread_pool::Impl" = type <{ %"class.std::vector", %"class.std::vector.2", %"class.OpenImageIO_v2_6_0::pvt::ThreadsafeQueue", %"struct.std::atomic", %"struct.std::atomic", [2 x i8], %"struct.std::atomic.10", i32, [4 x i8], %"class.std::mutex", %"class.std::condition_variable", %"class.boost::container::flat_map", %"class.OpenImageIO_v2_6_0::spin_mutex", [7 x i8] }>
%"class.std::vector" = type { %"struct.std::_Vector_base" }
%"struct.std::_Vector_base" = type { %"struct.std::_Vector_base<std::unique_ptr<std::thread>, std::allocator<std::unique_ptr<std::thread>>>::_Vector_impl" }
%"struct.std::_Vector_base<std::unique_ptr<std::thread>, std::allocator<std::unique_ptr<std::thread>>>::_Vector_impl" = type { %"struct.std::_Vector_base<std::unique_ptr<std::thread>, std::allocator<std::unique_ptr<std::thread>>>::_Vector_impl_data" }
%"struct.std::_Vector_base<std::unique_ptr<std::thread>, std::allocator<std::unique_ptr<std::thread>>>::_Vector_impl_data" = type { ptr, ptr, ptr }
%"class.std::vector.2" = type { %"struct.std::_Vector_base.3" }
%"struct.std::_Vector_base.3" = type { %"struct.std::_Vector_base<std::shared_ptr<std::atomic<bool>>, std::allocator<std::shared_ptr<std::atomic<bool>>>>::_Vector_impl" }
%"struct.std::_Vector_base<std::shared_ptr<std::atomic<bool>>, std::allocator<std::shared_ptr<std::atomic<bool>>>>::_Vector_impl" = type { %"struct.std::_Vector_base<std::shared_ptr<std::atomic<bool>>, std::allocator<std::shared_ptr<std::atomic<bool>>>>::_Vector_impl_data" }
%"struct.std::_Vector_base<std::shared_ptr<std::atomic<bool>>, std::allocator<std::shared_ptr<std::atomic<bool>>>>::_Vector_impl_data" = type { ptr, ptr, ptr }
%"class.OpenImageIO_v2_6_0::pvt::ThreadsafeQueue" = type <{ %"class.std::queue", %"class.OpenImageIO_v2_6_0::spin_mutex", [7 x i8] }>
%"class.std::queue" = type { %"class.std::deque" }
%"class.std::deque" = type { %"class.std::_Deque_base" }
%"class.std::_Deque_base" = type { %"struct.std::_Deque_base<std::function<void (int)> *, std::allocator<std::function<void (int)> *>>::_Deque_impl" }
%"struct.std::_Deque_base<std::function<void (int)> *, std::allocator<std::function<void (int)> *>>::_Deque_impl" = type { %"struct.std::_Deque_base<std::function<void (int)> *, std::allocator<std::function<void (int)> *>>::_Deque_impl_data" }
%"struct.std::_Deque_base<std::function<void (int)> *, std::allocator<std::function<void (int)> *>>::_Deque_impl_data" = type { ptr, i64, %"struct.std::_Deque_iterator", %"struct.std::_Deque_iterator" }
%"struct.std::_Deque_iterator" = type { ptr, ptr, ptr, ptr }
%"struct.std::atomic" = type { %"struct.std::__atomic_base" }
%"struct.std::__atomic_base" = type { i8 }
%"struct.std::atomic.10" = type { %"struct.std::__atomic_base.11" }
%"struct.std::__atomic_base.11" = type { i32 }
%"class.std::mutex" = type { %"class.std::__mutex_base" }
%"class.std::__mutex_base" = type { %union.pthread_mutex_t }
%union.pthread_mutex_t = type { %struct.__pthread_mutex_s }
%struct.__pthread_mutex_s = type { i32, i32, i32, i32, i32, i16, i16, %struct.__pthread_internal_list }
%struct.__pthread_internal_list = type { ptr, ptr }
%"class.std::condition_variable" = type { %"class.std::__condvar" }
%"class.std::__condvar" = type { %union.pthread_cond_t }
%union.pthread_cond_t = type { %struct.__pthread_cond_s }
%struct.__pthread_cond_s = type { %union.__atomic_wide_counter, %union.__atomic_wide_counter, [2 x i32], [2 x i32], i32, i32, [2 x i32] }
%union.__atomic_wide_counter = type { i64 }
%"class.boost::container::flat_map" = type { %"class.boost::container::dtl::flat_tree" }
%"class.boost::container::dtl::flat_tree" = type { %"struct.boost::container::dtl::flat_tree<boost::container::dtl::pair<std::thread::id, int>, boost::container::dtl::select1st<std::thread::id>, std::less<std::thread::id>, boost::container::new_allocator<boost::container::dtl::pair<std::thread::id, int>>>::Data" }
%"struct.boost::container::dtl::flat_tree<boost::container::dtl::pair<std::thread::id, int>, boost::container::dtl::select1st<std::thread::id>, std::less<std::thread::id>, boost::container::new_allocator<boost::container::dtl::pair<std::thread::id, int>>>::Data" = type { %"class.boost::container::vector" }
%"class.boost::container::vector" = type { %"struct.boost::container::vector_alloc_holder" }
%"struct.boost::container::vector_alloc_holder" = type { ptr, i64, i64 }
%"class.OpenImageIO_v2_6_0::spin_mutex" = type { %"struct.std::atomic_flag" }
%"struct.std::atomic_flag" = type { %"struct.std::__atomic_flag_base" }
%"struct.std::__atomic_flag_base" = type { i8 }
%"class.std::thread::id" = type { i64 }
%"class.OpenImageIO_v2_6_0::paropt" = type <{ i32, i16, i16, i64, ptr, i8, [7 x i8] }>

; Function Attrs: mustprogress nounwind uwtable
define linkonce_odr noundef nonnull align 8 dereferenceable(8) ptr @_ZNSt10_Head_baseILm0EPN18OpenImageIO_v2_6_011thread_pool4ImplELb0EE7_M_headERKS4_(ptr noundef nonnull align 8 dereferenceable(8) %__b) #1 comdat align 2 {
entry:
  %__b.addr = alloca ptr, align 8
  store ptr %__b, ptr %__b.addr, align 8
  %0 = load ptr, ptr %__b.addr, align 8
  %_M_head_impl = getelementptr inbounds %"struct.std::_Head_base.1", ptr %0, i32 0, i32 0
  ret ptr %_M_head_impl
}

; Function Attrs: mustprogress nounwind uwtable
define linkonce_odr noundef nonnull align 8 dereferenceable(8) ptr @_ZNSt11_Tuple_implILm0EJPN18OpenImageIO_v2_6_011thread_pool4ImplESt14default_deleteIS2_EEE7_M_headERKS6_(ptr noundef nonnull align 8 dereferenceable(8) %__t) #1 comdat align 2 {
entry:
  %__t.addr = alloca ptr, align 8
  store ptr %__t, ptr %__t.addr, align 8
  %0 = load ptr, ptr %__t.addr, align 8
  %call = call noundef nonnull align 8 dereferenceable(8) ptr @_ZNSt10_Head_baseILm0EPN18OpenImageIO_v2_6_011thread_pool4ImplELb0EE7_M_headERKS4_(ptr noundef nonnull align 8 dereferenceable(8) %0) #5
  ret ptr %call
}

; Function Attrs: mustprogress nounwind uwtable
define linkonce_odr noundef nonnull align 8 dereferenceable(8) ptr @_ZSt12__get_helperILm0EPN18OpenImageIO_v2_6_011thread_pool4ImplEJSt14default_deleteIS2_EEERKT0_RKSt11_Tuple_implIXT_EJS6_DpT1_EE(ptr noundef nonnull align 8 dereferenceable(8) %__t) #1 comdat {
entry:
  %__t.addr = alloca ptr, align 8
  store ptr %__t, ptr %__t.addr, align 8
  %0 = load ptr, ptr %__t.addr, align 8
  %call = call noundef nonnull align 8 dereferenceable(8) ptr @_ZNSt11_Tuple_implILm0EJPN18OpenImageIO_v2_6_011thread_pool4ImplESt14default_deleteIS2_EEE7_M_headERKS6_(ptr noundef nonnull align 8 dereferenceable(8) %0) #5
  ret ptr %call
}

; Function Attrs: mustprogress nounwind uwtable
define linkonce_odr noundef nonnull align 8 dereferenceable(8) ptr @_ZSt3getILm0EJPN18OpenImageIO_v2_6_011thread_pool4ImplESt14default_deleteIS2_EEERKNSt13tuple_elementIXT_ESt5tupleIJDpT0_EEE4typeERKSA_(ptr noundef nonnull align 8 dereferenceable(8) %__t) #1 comdat {
entry:
  %__t.addr = alloca ptr, align 8
  store ptr %__t, ptr %__t.addr, align 8
  %0 = load ptr, ptr %__t.addr, align 8
  %call = call noundef nonnull align 8 dereferenceable(8) ptr @_ZSt12__get_helperILm0EPN18OpenImageIO_v2_6_011thread_pool4ImplEJSt14default_deleteIS2_EEERKT0_RKSt11_Tuple_implIXT_EJS6_DpT1_EE(ptr noundef nonnull align 8 dereferenceable(8) %0) #5
  ret ptr %call
}

; Function Attrs: mustprogress nounwind uwtable
define linkonce_odr noundef ptr @_ZNKSt15__uniq_ptr_implIN18OpenImageIO_v2_6_011thread_pool4ImplESt14default_deleteIS2_EE6_M_ptrEv(ptr noundef nonnull align 8 dereferenceable(8) %this) #1 comdat align 2 {
entry:
  %this.addr = alloca ptr, align 8
  store ptr %this, ptr %this.addr, align 8
  %this1 = load ptr, ptr %this.addr, align 8
  %_M_t = getelementptr inbounds %"class.std::__uniq_ptr_impl", ptr %this1, i32 0, i32 0
  %call = call noundef nonnull align 8 dereferenceable(8) ptr @_ZSt3getILm0EJPN18OpenImageIO_v2_6_011thread_pool4ImplESt14default_deleteIS2_EEERKNSt13tuple_elementIXT_ESt5tupleIJDpT0_EEE4typeERKSA_(ptr noundef nonnull align 8 dereferenceable(8) %_M_t) #5
  %0 = load ptr, ptr %call, align 8
  ret ptr %0
}

; Function Attrs: noreturn nounwind uwtable
define linkonce_odr hidden void @__clang_call_terminate(ptr noundef %0) #10 comdat {
  %2 = call ptr @__cxa_begin_catch(ptr %0) #5
  call void @_ZSt9terminatev() #19
  unreachable
}

; Function Attrs: mustprogress nounwind uwtable
define linkonce_odr void @_ZNSt6thread2idC2Em(ptr noundef nonnull align 8 dereferenceable(8) %this, i64 noundef %__id) unnamed_addr #1 comdat align 2 {
entry:
  %this.addr = alloca ptr, align 8
  %__id.addr = alloca i64, align 8
  store ptr %this, ptr %this.addr, align 8
  store i64 %__id, ptr %__id.addr, align 8
  %this1 = load ptr, ptr %this.addr, align 8
  %_M_thread = getelementptr inbounds %"class.std::thread::id", ptr %this1, i32 0, i32 0
  %0 = load i64, ptr %__id.addr, align 8
  store i64 %0, ptr %_M_thread, align 8
  ret void
}

; Function Attrs: mustprogress nounwind uwtable
define linkonce_odr noundef ptr @_ZNKSt10unique_ptrIN18OpenImageIO_v2_6_011thread_pool4ImplESt14default_deleteIS2_EE3getEv(ptr noundef nonnull align 8 dereferenceable(8) %this) #1 comdat align 2 {
entry:
  %this.addr = alloca ptr, align 8
  store ptr %this, ptr %this.addr, align 8
  %this1 = load ptr, ptr %this.addr, align 8
  %_M_t = getelementptr inbounds %"class.std::unique_ptr", ptr %this1, i32 0, i32 0
  %call = call noundef ptr @_ZNKSt15__uniq_ptr_implIN18OpenImageIO_v2_6_011thread_pool4ImplESt14default_deleteIS2_EE6_M_ptrEv(ptr noundef nonnull align 8 dereferenceable(8) %_M_t) #5
  ret ptr %call
}

; Function Attrs: mustprogress uwtable
define noundef zeroext i1 @_ZNK18OpenImageIO_v2_6_011thread_pool9is_workerENSt6thread2idE(ptr noundef nonnull align 8 dereferenceable(8) %this, i64 %id.coerce) #6 align 2 {
entry:
  %id = alloca %"class.std::thread::id", align 8
  %this.addr = alloca ptr, align 8
  %agg.tmp = alloca %"class.std::thread::id", align 8
  %coerce.dive = getelementptr inbounds %"class.std::thread::id", ptr %id, i32 0, i32 0
  store i64 %id.coerce, ptr %coerce.dive, align 8
  store ptr %this, ptr %this.addr, align 8
  %this1 = load ptr, ptr %this.addr, align 8
  %m_impl = getelementptr inbounds %"class.OpenImageIO_v2_6_0::thread_pool", ptr %this1, i32 0, i32 0
  %call = call noundef ptr @_ZNKSt10unique_ptrIN18OpenImageIO_v2_6_011thread_pool4ImplESt14default_deleteIS2_EEptEv(ptr noundef nonnull align 8 dereferenceable(8) %m_impl) #5
  call void @llvm.memcpy.p0.p0.i64(ptr align 8 %agg.tmp, ptr align 8 %id, i64 8, i1 false)
  %coerce.dive2 = getelementptr inbounds %"class.std::thread::id", ptr %agg.tmp, i32 0, i32 0
  %0 = load i64, ptr %coerce.dive2, align 8
  %call3 = call noundef zeroext i1 @_ZNK18OpenImageIO_v2_6_011thread_pool4Impl9is_workerENSt6thread2idE(ptr noundef nonnull align 8 dereferenceable(265) %call, i64 %0)
  ret i1 %call3
}

; Function Attrs: mustprogress nounwind uwtable
define linkonce_odr i64 @_ZNSt11this_thread6get_idEv() #1 comdat personality ptr @__gxx_personality_v0 {
entry:
  %retval = alloca %"class.std::thread::id", align 8
  %call = call i64 @pthread_self() #21
  invoke void @_ZNSt6thread2idC2Em(ptr noundef nonnull align 8 dereferenceable(8) %retval, i64 noundef %call)
          to label %invoke.cont unwind label %terminate.lpad

invoke.cont:                                      ; preds = %entry
  %coerce.dive = getelementptr inbounds %"class.std::thread::id", ptr %retval, i32 0, i32 0
  %0 = load i64, ptr %coerce.dive, align 8
  ret i64 %0

terminate.lpad:                                   ; preds = %entry
  %1 = landingpad { ptr, i32 }
          catch ptr null
  %2 = extractvalue { ptr, i32 } %1, 0
  call void @__clang_call_terminate(ptr %2) #19
  unreachable
}

; Function Attrs: mustprogress nounwind uwtable
define linkonce_odr noundef i32 @_ZNK18OpenImageIO_v2_6_011thread_pool4Impl4sizeEv(ptr noundef nonnull align 8 dereferenceable(265) %this) #1 comdat align 2 {
entry:
  %this.addr = alloca ptr, align 8
  store ptr %this, ptr %this.addr, align 8
  %this1 = load ptr, ptr %this.addr, align 8
  %m_size = getelementptr inbounds %"class.OpenImageIO_v2_6_0::thread_pool::Impl", ptr %this1, i32 0, i32 7
  %0 = load i32, ptr %m_size, align 8
  ret i32 %0
}

; Function Attrs: mustprogress nounwind uwtable
define linkonce_odr noundef ptr @_ZNKSt10unique_ptrIN18OpenImageIO_v2_6_011thread_pool4ImplESt14default_deleteIS2_EEptEv(ptr noundef nonnull align 8 dereferenceable(8) %this) #1 comdat align 2 {
entry:
  %this.addr = alloca ptr, align 8
  store ptr %this, ptr %this.addr, align 8
  %this1 = load ptr, ptr %this.addr, align 8
  %call = call noundef ptr @_ZNKSt10unique_ptrIN18OpenImageIO_v2_6_011thread_pool4ImplESt14default_deleteIS2_EE3getEv(ptr noundef nonnull align 8 dereferenceable(8) %this1) #5
  ret ptr %call
}

; Function Attrs: mustprogress uwtable
define linkonce_odr noundef zeroext i1 @_ZNK18OpenImageIO_v2_6_011thread_pool9is_workerEv(ptr noundef nonnull align 8 dereferenceable(8) %this) #6 comdat align 2 {
entry:
  %this.addr = alloca ptr, align 8
  %agg.tmp = alloca %"class.std::thread::id", align 8
  store ptr %this, ptr %this.addr, align 8
  %this1 = load ptr, ptr %this.addr, align 8
  %call = call i64 @_ZNSt11this_thread6get_idEv() #5
  %coerce.dive = getelementptr inbounds %"class.std::thread::id", ptr %agg.tmp, i32 0, i32 0
  store i64 %call, ptr %coerce.dive, align 8
  %coerce.dive2 = getelementptr inbounds %"class.std::thread::id", ptr %agg.tmp, i32 0, i32 0
  %0 = load i64, ptr %coerce.dive2, align 8
  %call3 = call noundef zeroext i1 @_ZNK18OpenImageIO_v2_6_011thread_pool9is_workerENSt6thread2idE(ptr noundef nonnull align 8 dereferenceable(8) %this1, i64 %0)
  ret i1 %call3
}

; Function Attrs: mustprogress uwtable
define noundef i32 @_ZNK18OpenImageIO_v2_6_011thread_pool4sizeEv(ptr noundef nonnull align 8 dereferenceable(8) %this) #6 align 2 {
entry:
  %this.addr = alloca ptr, align 8
  store ptr %this, ptr %this.addr, align 8
  %this1 = load ptr, ptr %this.addr, align 8
  %m_impl = getelementptr inbounds %"class.OpenImageIO_v2_6_0::thread_pool", ptr %this1, i32 0, i32 0
  %call = call noundef ptr @_ZNKSt10unique_ptrIN18OpenImageIO_v2_6_011thread_pool4ImplESt14default_deleteIS2_EEptEv(ptr noundef nonnull align 8 dereferenceable(8) %m_impl) #5
  %call2 = call noundef i32 @_ZNK18OpenImageIO_v2_6_011thread_pool4Impl4sizeEv(ptr noundef nonnull align 8 dereferenceable(265) %call)
  ret i32 %call2
}

; Function Attrs: mustprogress uwtable
define void @_ZN18OpenImageIO_v2_6_06paropt7resolveEv(ptr noundef nonnull align 8 dereferenceable(25) %this) #6 align 2 {
entry:
  %this.addr = alloca ptr, align 8
  store ptr %this, ptr %this.addr, align 8
  %this1 = load ptr, ptr %this.addr, align 8
  %m_pool = getelementptr inbounds %"class.OpenImageIO_v2_6_0::paropt", ptr %this1, i32 0, i32 4
  %0 = load ptr, ptr %m_pool, align 8
  %cmp = icmp eq ptr %0, null
  br i1 %cmp, label %if.then, label %if.end

if.then:                                          ; preds = %entry
  %call = call noundef ptr @_ZN18OpenImageIO_v2_6_019default_thread_poolEv()
  %m_pool2 = getelementptr inbounds %"class.OpenImageIO_v2_6_0::paropt", ptr %this1, i32 0, i32 4
  store ptr %call, ptr %m_pool2, align 8
  br label %if.end

if.end:                                           ; preds = %if.then, %entry
  %m_maxthreads = getelementptr inbounds %"class.OpenImageIO_v2_6_0::paropt", ptr %this1, i32 0, i32 0
  %1 = load i32, ptr %m_maxthreads, align 8
  %cmp3 = icmp sle i32 %1, 0
  br i1 %cmp3, label %if.then4, label %if.end8

if.then4:                                         ; preds = %if.end
  %m_pool5 = getelementptr inbounds %"class.OpenImageIO_v2_6_0::paropt", ptr %this1, i32 0, i32 4
  %2 = load ptr, ptr %m_pool5, align 8
  %call6 = call noundef i32 @_ZNK18OpenImageIO_v2_6_011thread_pool4sizeEv(ptr noundef nonnull align 8 dereferenceable(8) %2)
  %add = add nsw i32 %call6, 1
  %m_maxthreads7 = getelementptr inbounds %"class.OpenImageIO_v2_6_0::paropt", ptr %this1, i32 0, i32 0
  store i32 %add, ptr %m_maxthreads7, align 8
  br label %if.end8

if.end8:                                          ; preds = %if.then4, %if.end
  %m_recursive = getelementptr inbounds %"class.OpenImageIO_v2_6_0::paropt", ptr %this1, i32 0, i32 5
  %3 = load i8, ptr %m_recursive, align 8
  %tobool = trunc i8 %3 to i1
  br i1 %tobool, label %if.end13, label %land.lhs.true

land.lhs.true:                                    ; preds = %if.end8
  %m_pool9 = getelementptr inbounds %"class.OpenImageIO_v2_6_0::paropt", ptr %this1, i32 0, i32 4
  %4 = load ptr, ptr %m_pool9, align 8
  %call10 = call noundef zeroext i1 @_ZNK18OpenImageIO_v2_6_011thread_pool9is_workerEv(ptr noundef nonnull align 8 dereferenceable(8) %4)
  br i1 %call10, label %if.then11, label %if.end13

if.then11:                                        ; preds = %land.lhs.true
  %m_maxthreads12 = getelementptr inbounds %"class.OpenImageIO_v2_6_0::paropt", ptr %this1, i32 0, i32 0
  store i32 1, ptr %m_maxthreads12, align 8
  br label %if.end13

if.end13:                                         ; preds = %if.then11, %land.lhs.true, %if.end8
  ret void
}