; Function Attrs: mustprogress uwtable
define void @_ZN18OpenImageIO_v2_6_06paropt7resolveEv(ptr nocapture noundef nonnull align 8 dereferenceable(25) %this) local_unnamed_addr #4 align 2 personality ptr @__gxx_personality_v0 {
entry:
  %m_pool = getelementptr inbounds i8, ptr %this, i64 16
  %0 = load ptr, ptr %m_pool, align 8
  %cmp = icmp eq ptr %0, null
  br i1 %cmp, label %if.then, label %if.end

if.then:                                          ; preds = %entry
  %call = tail call noundef ptr @_ZN18OpenImageIO_v2_6_019default_thread_poolEv()
  store ptr %call, ptr %m_pool, align 8
  br label %if.end

if.end:                                           ; preds = %if.then, %entry
  %1 = phi ptr [ %call, %if.then ], [ %0, %entry ]
  %2 = load i32, ptr %this, align 8
  %cmp3 = icmp slt i32 %2, 1
  br i1 %cmp3, label %if.then4, label %if.end8

if.then4:                                         ; preds = %if.end
  %3 = load ptr, ptr %1, align 8
  %m_size.i.i = getelementptr inbounds i8, ptr %3, i64 144
  %4 = load i32, ptr %m_size.i.i, align 8
  %add = add nsw i32 %4, 1
  store i32 %add, ptr %this, align 8
  br label %if.end8

if.end8:                                          ; preds = %if.then4, %if.end
  %m_recursive = getelementptr inbounds i8, ptr %this, i64 24
  %5 = load i8, ptr %m_recursive, align 8
  %6 = and i8 %5, 1
  %tobool.not = icmp eq i8 %6, 0
  br i1 %tobool.not, label %land.lhs.true, label %if.end13

land.lhs.true:                                    ; preds = %if.end8
  %call.i.i = tail call i64 @pthread_self() #30
  %7 = load ptr, ptr %1, align 8
  %call3.i.i = tail call noundef zeroext i1 @_ZNK18OpenImageIO_v2_6_011thread_pool4Impl9is_workerENSt6thread2idE(ptr noundef nonnull align 8 dereferenceable(265) %7, i64 %call.i.i)
  br i1 %call3.i.i, label %if.then11, label %if.end13

if.then11:                                        ; preds = %land.lhs.true
  store i32 1, ptr %this, align 8
  br label %if.end13

if.end13:                                         ; preds = %if.then11, %land.lhs.true, %if.end8
  ret void
}